target datalayout = "e-m:e-p270:32:32-p271:32:32-p272:64:64-i64:64-i128:128-f80:128-n8:16:32:64-S128"
target triple = "x86_64-pc-linux-gnu"

%struct.asp_request_key = type { i32, [4 x i8], i16 }

; Function Attrs: nounwind null_pointer_is_valid sspstrong uwtable
define internal i32 @asp_equal(ptr noundef %0, ptr noundef %1) #3 {
  %3 = alloca i32, align 4
  %4 = alloca ptr, align 8
  %5 = alloca ptr, align 8
  %6 = alloca ptr, align 8
  %7 = alloca ptr, align 8
  %8 = alloca i32, align 4
  store ptr %0, ptr %4, align 8
  store ptr %1, ptr %5, align 8
  call void @llvm.lifetime.start.p0(i64 8, ptr %6) #11
  %9 = load ptr, ptr %4, align 8
  store ptr %9, ptr %6, align 8
  call void @llvm.lifetime.start.p0(i64 8, ptr %7) #11
  %10 = load ptr, ptr %5, align 8
  store ptr %10, ptr %7, align 8
  %11 = load ptr, ptr %6, align 8
  %12 = getelementptr inbounds nuw %struct.asp_request_key, ptr %11, i32 0, i32 0
  %13 = load i32, ptr %12, align 4
  %14 = load ptr, ptr %7, align 8
  %15 = getelementptr inbounds nuw %struct.asp_request_key, ptr %14, i32 0, i32 0
  %16 = load i32, ptr %15, align 4
  %17 = icmp eq i32 %13, %16
  br i1 %17, label %18, label %38

18:                                               ; preds = %2
  %19 = load ptr, ptr %6, align 8
  %20 = getelementptr inbounds nuw %struct.asp_request_key, ptr %19, i32 0, i32 2
  %21 = load i16, ptr %20, align 4
  %22 = zext i16 %21 to i32
  %23 = load ptr, ptr %7, align 8
  %24 = getelementptr inbounds nuw %struct.asp_request_key, ptr %23, i32 0, i32 2
  %25 = load i16, ptr %24, align 4
  %26 = zext i16 %25 to i32
  %27 = icmp eq i32 %22, %26
  br i1 %27, label %28, label %38

28:                                               ; preds = %18
  %29 = load ptr, ptr %6, align 8
  %30 = getelementptr inbounds nuw %struct.asp_request_key, ptr %29, i32 0, i32 1
  %31 = getelementptr inbounds [4 x i8], ptr %30, i64 0, i64 0
  %32 = load ptr, ptr %7, align 8
  %33 = getelementptr inbounds nuw %struct.asp_request_key, ptr %32, i32 0, i32 1
  %34 = getelementptr inbounds [4 x i8], ptr %33, i64 0, i64 0
  %35 = call i32 @memcmp(ptr noundef %31, ptr noundef %34, i64 noundef 4) #13
  %36 = icmp ne i32 %35, 0
  br i1 %36, label %38, label %37

37:                                               ; preds = %28
  store i32 1, ptr %3, align 4
  store i32 1, ptr %8, align 4
  br label %39

38:                                               ; preds = %28, %18, %2
  store i32 0, ptr %3, align 4
  store i32 1, ptr %8, align 4
  br label %39

39:                                               ; preds = %38, %37
  call void @llvm.lifetime.end.p0(i64 8, ptr %7) #11
  call void @llvm.lifetime.end.p0(i64 8, ptr %6) #11
  %40 = load i32, ptr %3, align 4
  ret i32 %40
}