; Function Attrs: mustprogress nofree nounwind null_pointer_is_valid sspstrong willreturn memory(argmem: read) uwtable
define internal range(i32 0, 2) i32 @asp_equal(ptr noundef readonly captures(none) %0, ptr noundef readonly captures(none) %1) #5 {
  %3 = load i32, ptr %0, align 4
  %4 = load i32, ptr %1, align 4
  %5 = icmp eq i32 %3, %4
  br i1 %5, label %6, label %15

6:                                                ; preds = %2
  %7 = getelementptr inbounds nuw i8, ptr %0, i64 8
  %8 = load i16, ptr %7, align 4
  %9 = getelementptr inbounds nuw i8, ptr %1, i64 8
  %10 = load i16, ptr %9, align 4
  %11 = icmp eq i16 %8, %10
  br i1 %11, label %12, label %15

12:                                               ; preds = %6
  %13 = getelementptr inbounds nuw i8, ptr %0, i64 4
  %14 = getelementptr inbounds nuw i8, ptr %1, i64 4
  %bcmp = tail call i32 @bcmp(ptr noundef nonnull dereferenceable(4) %13, ptr noundef nonnull dereferenceable(4) %14, i64 4)
  %.not = icmp eq i32 %bcmp, 0
  br i1 %.not, label %16, label %15

15:                                               ; preds = %12, %6, %2
  br label %16

16:                                               ; preds = %12, %15
  %.0 = phi i32 [ 0, %15 ], [ 1, %12 ]
  ret i32 %.0
}